; Function Attrs: mustprogress uwtable
define dso_local void @_ZNK9Statement15find_jump_labelB5cxx11Ev(ptr dead_on_unwind noalias writable sret(%"class.std::__cxx11::basic_string") align 8 %0, ptr noundef nonnull readonly align 8 dereferenceable(32) %1) local_unnamed_addr #4 align 2 personality ptr @__gxx_personality_v0 {
  %3 = alloca %"class.std::allocator.0", align 1
  %4 = getelementptr inbounds i8, ptr %1, i64 16
  %5 = load ptr, ptr %4, align 8
  %.not = icmp eq ptr %5, null
  br i1 %.not, label %.loopexit, label %6

6:                                                ; preds = %2
  %7 = tail call noundef ptr @_Z21get_fact_mgr_for_funcPK8Function(ptr noundef nonnull %5)
  %8 = getelementptr inbounds i8, ptr %7, i64 336
  %9 = getelementptr inbounds i8, ptr %7, i64 344
  %10 = load ptr, ptr %9, align 8
  %11 = load ptr, ptr %8, align 8
  %.not14 = icmp eq ptr %10, %11
  br i1 %.not14, label %.loopexit, label %.lr.ph.preheader

.lr.ph.preheader:                                 ; preds = %6
  %12 = ptrtoint ptr %10 to i64
  %13 = ptrtoint ptr %11 to i64
  %14 = sub i64 %12, %13
  %15 = ashr exact i64 %14, 3
  %umax = tail call i64 @llvm.umax.i64(i64 %15, i64 1)
  br label %.lr.ph

.lr.ph:                                           ; preds = %.lr.ph.preheader, %30
  %.013 = phi i64 [ %31, %30 ], [ 0, %.lr.ph.preheader ]
  %16 = getelementptr inbounds ptr, ptr %11, i64 %.013
  %17 = load ptr, ptr %16, align 8
  %18 = getelementptr inbounds i8, ptr %17, i64 16
  %19 = load ptr, ptr %18, align 8
  %20 = icmp eq ptr %19, %1
  br i1 %20, label %21, label %30

21:                                               ; preds = %.lr.ph
  %22 = getelementptr inbounds i8, ptr %17, i64 8
  %23 = load ptr, ptr %22, align 8
  %24 = getelementptr inbounds i8, ptr %23, i64 8
  %25 = load i32, ptr %24, align 8
  %26 = icmp eq i32 %25, 8
  br i1 %26, label %27, label %30

27:                                               ; preds = %21
  %28 = tail call ptr @__dynamic_cast(ptr nonnull %23, ptr nonnull @_ZTI9Statement, ptr nonnull @_ZTI13StatementGoto, i64 0) #24
  %29 = getelementptr inbounds i8, ptr %28, i64 48
  tail call void @_ZNSt7__cxx1112basic_stringIcSt11char_traitsIcESaIcEEC1ERKS4_(ptr noundef nonnull align 8 dereferenceable(32) %0, ptr noundef nonnull align 8 dereferenceable(32) %29)
  br label %35

30:                                               ; preds = %.lr.ph, %21
  %31 = add nuw i64 %.013, 1
  %exitcond.not = icmp eq i64 %31, %umax
  br i1 %exitcond.not, label %.loopexit, label %.lr.ph, !llvm.loop !27

.loopexit:                                        ; preds = %30, %6, %2
  call void @_ZNSaIcEC1Ev(ptr noundef nonnull align 1 dereferenceable(1) %3) #24
  invoke void @_ZNSt7__cxx1112basic_stringIcSt11char_traitsIcESaIcEEC1EPKcRKS3_(ptr noundef nonnull align 8 dereferenceable(32) %0, ptr noundef nonnull @.str.3, ptr noundef nonnull align 1 dereferenceable(1) %3)
          to label %32 unwind label %33

32:                                               ; preds = %.loopexit
  call void @_ZNSaIcED1Ev(ptr noundef nonnull align 1 dereferenceable(1) %3) #24
  br label %35

33:                                               ; preds = %.loopexit
  %34 = landingpad { ptr, i32 }
          cleanup
  call void @_ZNSaIcED1Ev(ptr noundef nonnull align 1 dereferenceable(1) %3) #24
  resume { ptr, i32 } %34

35:                                               ; preds = %32, %27
  ret void
}